; Function Attrs: nounwind uwtable
define ptr @l_Lean_Elab_applyVisibility___rarg___lambda__3(ptr noundef %0, ptr noundef %1, ptr noundef %2, ptr noundef %3, ptr readnone captures(none) %4) local_unnamed_addr #0 {
  %6 = getelementptr inbounds nuw i8, ptr %0, i64 16
  %7 = load ptr, ptr %6, align 8, !tbaa !9
  %8 = ptrtoint ptr %7 to i64
  %9 = and i64 %8, 1
  %.not = icmp eq i64 %9, 0
  br i1 %.not, label %10, label %lean_inc.exit16

10:                                               ; preds = %5
  %.val.i = load i32, ptr %7, align 4, !tbaa !4
  %11 = icmp sgt i32 %.val.i, 0
  br i1 %11, label %12, label %14, !prof !13

12:                                               ; preds = %10
  %13 = add nuw i32 %.val.i, 1
  store i32 %13, ptr %7, align 4, !tbaa !4
  br label %lean_inc.exit16

14:                                               ; preds = %10
  %.not.i17 = icmp eq i32 %.val.i, 0
  br i1 %.not.i17, label %lean_inc.exit16, label %15

15:                                               ; preds = %14
  tail call void @lean_inc_ref_cold(ptr noundef nonnull %7) #7
  br label %lean_inc.exit16

lean_inc.exit16:                                  ; preds = %15, %14, %12, %5
  %16 = ptrtoint ptr %0 to i64
  %17 = and i64 %16, 1
  %.not22 = icmp eq i64 %17, 0
  br i1 %.not22, label %18, label %lean_dec.exit

18:                                               ; preds = %lean_inc.exit16
  %19 = load i32, ptr %0, align 4, !tbaa !4
  %20 = icmp sgt i32 %19, 1
  br i1 %20, label %21, label %23, !prof !13

21:                                               ; preds = %18
  %22 = add nsw i32 %19, -1
  store i32 %22, ptr %0, align 4, !tbaa !4
  br label %lean_dec.exit

23:                                               ; preds = %18
  %.not.i = icmp eq i32 %19, 0
  br i1 %.not.i, label %lean_dec.exit, label %24

24:                                               ; preds = %23
  tail call void @lean_dec_ref_cold(ptr noundef nonnull %0) #7
  br label %lean_dec.exit

lean_dec.exit:                                    ; preds = %24, %23, %21, %lean_inc.exit16
  %25 = ptrtoint ptr %1 to i64
  %26 = and i64 %25, 1
  %.not23 = icmp eq i64 %26, 0
  br i1 %.not23, label %27, label %lean_inc.exit

27:                                               ; preds = %lean_dec.exit
  %.val.i18 = load i32, ptr %1, align 4, !tbaa !4
  %28 = icmp sgt i32 %.val.i18, 0
  br i1 %28, label %29, label %31, !prof !13

29:                                               ; preds = %27
  %30 = add nuw i32 %.val.i18, 1
  store i32 %30, ptr %1, align 4, !tbaa !4
  br label %lean_inc.exit

31:                                               ; preds = %27
  %.not.i19 = icmp eq i32 %.val.i18, 0
  br i1 %.not.i19, label %lean_inc.exit, label %32

32:                                               ; preds = %31
  tail call void @lean_inc_ref_cold(ptr noundef nonnull %1) #7
  br label %lean_inc.exit

lean_inc.exit:                                    ; preds = %32, %31, %29, %lean_dec.exit
  tail call void @lean_inc_heartbeat() #7
  %33 = tail call noalias ptr @mi_malloc_small(i64 noundef 32) #7
  %34 = icmp eq ptr %33, null
  br i1 %34, label %35, label %lean_alloc_closure.exit

35:                                               ; preds = %lean_inc.exit
  tail call void @lean_internal_panic_out_of_memory() #8
  unreachable

lean_alloc_closure.exit:                          ; preds = %lean_inc.exit
  %36 = getelementptr inbounds nuw i8, ptr %33, i64 4
  store i32 1, ptr %33, align 4, !tbaa !4
  store i32 -184549344, ptr %36, align 4
  %37 = getelementptr inbounds nuw i8, ptr %33, i64 8
  store ptr @l_Lean_Elab_applyVisibility___rarg___lambda__2, ptr %37, align 8, !tbaa !9
  %38 = getelementptr inbounds nuw i8, ptr %33, i64 16
  store i16 2, ptr %38, align 8, !tbaa !14
  %39 = getelementptr inbounds nuw i8, ptr %33, i64 18
  store i16 1, ptr %39, align 2, !tbaa !14
  %40 = getelementptr inbounds nuw i8, ptr %33, i64 24
  store ptr %1, ptr %40, align 8, !tbaa !9
  %41 = tail call ptr @lean_apply_1(ptr noundef %7, ptr noundef nonnull %33) #7
  tail call void @lean_inc_heartbeat() #7
  %42 = tail call noalias ptr @mi_malloc_small(i64 noundef 40) #7
  %43 = icmp eq ptr %42, null
  br i1 %43, label %44, label %lean_alloc_closure.exit21

44:                                               ; preds = %lean_alloc_closure.exit
  tail call void @lean_internal_panic_out_of_memory() #8
  unreachable

lean_alloc_closure.exit21:                        ; preds = %lean_alloc_closure.exit
  %45 = getelementptr inbounds nuw i8, ptr %42, i64 4
  store i32 1, ptr %42, align 4, !tbaa !4
  store i32 -184549336, ptr %45, align 4
  %46 = getelementptr inbounds nuw i8, ptr %42, i64 8
  store ptr @l_Lean_Elab_applyVisibility___rarg___lambda__1___boxed, ptr %46, align 8, !tbaa !9
  %47 = getelementptr inbounds nuw i8, ptr %42, i64 16
  store i16 3, ptr %47, align 8, !tbaa !14
  %48 = getelementptr inbounds nuw i8, ptr %42, i64 18
  store i16 2, ptr %48, align 2, !tbaa !14
  %49 = getelementptr inbounds nuw i8, ptr %42, i64 24
  store ptr %2, ptr %49, align 8, !tbaa !9
  %50 = getelementptr inbounds nuw i8, ptr %42, i64 32
  store ptr %1, ptr %50, align 8, !tbaa !9
  %51 = tail call ptr @lean_apply_4(ptr noundef %3, ptr noundef nonnull inttoptr (i64 1 to ptr), ptr noundef nonnull inttoptr (i64 1 to ptr), ptr noundef %41, ptr noundef nonnull %42) #7
  ret ptr %51
}